; Function Attrs: mustprogress uwtable
define void @_ZN6icu_7712StringSearch7setTextERKNS_13UnicodeStringER10UErrorCode(ptr noundef nonnull align 8 dereferenceable(160) %0, ptr noundef nonnull align 8 dereferenceable(64) %1, ptr noundef nonnull align 4 dereferenceable(4) %2) unnamed_addr #1 align 2 {
  %4 = load i32, ptr %2, align 4, !tbaa !6
  %5 = icmp sgt i32 %4, 0
  br i1 %5, label %27, label %6

6:                                                ; preds = %3
  %7 = getelementptr inbounds nuw i8, ptr %0, i64 24
  %8 = tail call noundef nonnull align 8 dereferenceable(64) ptr @_ZN6icu_7713UnicodeStringaSERKS0_(ptr noundef nonnull align 8 dereferenceable(64) %7, ptr noundef nonnull align 8 dereferenceable(64) %1)
  %9 = getelementptr inbounds nuw i8, ptr %0, i64 152
  %10 = load ptr, ptr %9, align 8, !tbaa !9
  %11 = getelementptr inbounds nuw i8, ptr %1, i64 8
  %12 = load i16, ptr %11, align 8, !tbaa !19
  %13 = and i16 %12, 17
  %.not.i = icmp eq i16 %13, 0
  br i1 %.not.i, label %14, label %_ZNK6icu_7713UnicodeString9getBufferEv.exit

14:                                               ; preds = %6
  %15 = and i16 %12, 2
  %.not2.i = icmp eq i16 %15, 0
  br i1 %.not2.i, label %18, label %16

16:                                               ; preds = %14
  %17 = getelementptr inbounds nuw i8, ptr %1, i64 10
  br label %_ZNK6icu_7713UnicodeString9getBufferEv.exit

18:                                               ; preds = %14
  %19 = getelementptr inbounds nuw i8, ptr %1, i64 24
  %20 = load ptr, ptr %19, align 8, !tbaa !19
  br label %_ZNK6icu_7713UnicodeString9getBufferEv.exit

_ZNK6icu_7713UnicodeString9getBufferEv.exit:      ; preds = %6, %16, %18
  %.0.i = phi ptr [ %17, %16 ], [ %20, %18 ], [ null, %6 ]
  %21 = icmp slt i16 %12, 0
  %22 = ashr i16 %12, 5
  %23 = sext i16 %22 to i32
  %24 = getelementptr inbounds nuw i8, ptr %1, i64 12
  %25 = load i32, ptr %24, align 4
  %26 = select i1 %21, i32 %25, i32 %23
  tail call void @usearch_setText_77(ptr noundef %10, ptr noundef %.0.i, i32 noundef %26, ptr noundef nonnull %2)
  br label %27

27:                                               ; preds = %_ZNK6icu_7713UnicodeString9getBufferEv.exit, %3
  ret void
}